; Function Attrs: mustprogress nounwind uwtable
define dso_local void @_ZNK5clang10Qualifiers11getAsStringB5cxx11ERKNS_14PrintingPolicyE(ptr dead_on_unwind noalias writable sret(%"class.std::__cxx11::basic_string") align 8 %0, ptr nocapture noundef nonnull readonly align 8 dereferenceable(8) %1, ptr nocapture noundef nonnull readonly align 8 dereferenceable(16) %2) local_unnamed_addr #0 align 2 {
  %4 = alloca %"struct.std::__cxx11::basic_string<char>::__sv_wrapper", align 8
  %5 = alloca %"class.llvm::SmallString", align 8
  %6 = alloca %"class.llvm::raw_svector_ostream", align 8
  %7 = alloca %"class.std::allocator.160", align 1
  %8 = getelementptr inbounds i8, ptr %5, i64 24
  call void @_ZN4llvm15SmallVectorBaseImEC2EPvm(ptr noundef nonnull align 8 dereferenceable(24) %5, ptr noundef nonnull %8, i64 noundef 64) #16
  %9 = getelementptr inbounds nuw i8, ptr %6, i64 8
  store i32 2, ptr %9, align 8
  %10 = getelementptr inbounds nuw i8, ptr %6, i64 40
  store i8 0, ptr %10, align 8
  %11 = getelementptr inbounds nuw i8, ptr %6, i64 44
  store i32 1, ptr %11, align 4
  %12 = getelementptr inbounds nuw i8, ptr %6, i64 16
  call void @llvm.memset.p0.i64(ptr noundef nonnull align 8 dereferenceable(24) %12, i8 0, i64 24, i1 false)
  store ptr getelementptr inbounds inrange(-16, 112) (i8, ptr @_ZTVN4llvm19raw_svector_ostreamE, i64 16), ptr %6, align 8
  %13 = getelementptr inbounds nuw i8, ptr %6, i64 48
  store ptr %5, ptr %13, align 8
  call void @_ZN4llvm11raw_ostream16SetBufferAndModeEPcmNS0_10BufferKindE(ptr noundef nonnull align 8 dereferenceable(48) %6, ptr noundef null, i64 noundef 0, i32 noundef 0) #16
  call void @_ZNK5clang10Qualifiers5printERN4llvm11raw_ostreamERKNS_14PrintingPolicyEb(ptr noundef nonnull align 8 dereferenceable(8) %1, ptr noundef nonnull align 8 dereferenceable(48) %6, ptr noundef nonnull align 8 dereferenceable(16) %2, i1 noundef zeroext false)
  %14 = load ptr, ptr %13, align 8
  %15 = load ptr, ptr %14, align 8
  %16 = call noundef i64 @_ZNK4llvm15SmallVectorBaseImE4sizeEv(ptr noundef nonnull align 8 dereferenceable(24) %14) #16
  call void @_ZNSaIcEC1Ev(ptr noundef nonnull align 1 dereferenceable(1) %7) #16
  call void @llvm.lifetime.start.p0(i64 16, ptr nonnull %4)
  %17 = call { i64, ptr } @_ZNSt7__cxx1112basic_stringIcSt11char_traitsIcESaIcEE17_S_to_string_viewESt17basic_string_viewIcS2_E(i64 %16, ptr %15) #16
  %18 = extractvalue { i64, ptr } %17, 0
  %19 = extractvalue { i64, ptr } %17, 1
  call void @_ZNSt7__cxx1112basic_stringIcSt11char_traitsIcESaIcEE12__sv_wrapperC1ESt17basic_string_viewIcS2_E(ptr noundef nonnull align 8 dereferenceable(16) %4, i64 %18, ptr %19) #16
  %20 = load i64, ptr %4, align 8
  %21 = getelementptr inbounds nuw i8, ptr %4, i64 8
  %22 = load ptr, ptr %21, align 8
  call void @_ZNSt7__cxx1112basic_stringIcSt11char_traitsIcESaIcEEC2ENS4_12__sv_wrapperERKS3_(ptr noundef nonnull align 8 dereferenceable(32) %0, i64 %20, ptr %22, ptr noundef nonnull align 1 dereferenceable(1) %7) #16
  call void @llvm.lifetime.end.p0(i64 16, ptr nonnull %4)
  call void @_ZNSaIcED1Ev(ptr noundef nonnull align 1 dereferenceable(1) %7) #16
  call void @_ZN4llvm11raw_ostreamD2Ev(ptr noundef nonnull align 8 dereferenceable(48) %6) #16
  %23 = call noundef i64 @_ZNK4llvm15SmallVectorBaseImE4sizeEv(ptr noundef nonnull align 8 dereferenceable(24) %5) #16
  %24 = load ptr, ptr %5, align 8
  %25 = icmp eq ptr %24, %8
  br i1 %25, label %_ZN4llvm11SmallStringILj64EED2Ev.exit, label %26

26:                                               ; preds = %3
  call void @free(ptr noundef %24) #16
  br label %_ZN4llvm11SmallStringILj64EED2Ev.exit

_ZN4llvm11SmallStringILj64EED2Ev.exit:            ; preds = %3, %26
  ret void
}